(dp0
S'ego_4_512,seed_0,teb_big_radius'
p1
(dp2
S'graphGen'
p3
F0.36189799439775905
sS'obsCount'
p4
F50.67226890756302
sS'optimizeGraph'
p5
F57.62632413885185
sS'num_gaps'
p6
F16.756302521008404
sS'calculateEquivalenceClass'
p7
F0.7326645478901556
sS'insertPoints'
p8
F0.0
sS'update'
p9
F0.0
ssS'ego_4_256,seed_0,teb_reg_radius'
p10
(dp11
g3
F0.283224977653631
sg4
F46.41899441340782
sg5
F57.205132183035836
sg6
F16.645251396648046
sg7
F0.6771868732943468
sg8
F0.0
sg9
F0.0
ssS'ego_3_1024,seed_0,teb_small_radius'
p12
(dp13
g3
F0.03730746703296676
sg4
F32.47802197802198
sg5
F58.39501506403377
sg6
F10.87087912087912
sg7
F0.3008315059435347
sg8
F0.0
sg9
F0.000997008973080758
ssS'ego_3_512,seed_0,teb_reg_radius'
p14
(dp15
g3
F0.02963562464985975
sg4
F30.596638655462186
sg5
F58.84769661179176
sg6
F10.84873949579832
sg9
F0.0
sg8
F0.0
sg7
F0.2752971066867021
ssS'ego_5_512,seed_0,teb_small_radius'
p16
(dp17
g3
F0.7210436676384843
sg4
F79.02915451895043
sg5
F57.95432036013749
sg6
F22.24198250728863
sg9
F0.004965104685942173
sg8
F0.0
sg7
F1.0430705421293291
ssS'ego_5_1024,seed_0,teb_small_radius'
p18
(dp19
g3
F0.8347405784883718
sg4
F88.25872093023256
sg5
F57.97980116085254
sg6
F22.450581395348838
sg9
F0.15938185443669003
sg8
F0.0
sg7
F1.098672597883592
ssS'ego_5_1024,seed_0,teb_big_radius'
p20
(dp21
g3
F0.8570052181303125
sg4
F88.60906515580737
sg5
F57.200720043092275
sg6
F22.46175637393768
sg7
F1.1331040770243583
sg8
F0.0
sg9
F0.15337986041874363
ssS'ego_3_1024,seed_0,teb_big_radius'
p22
(dp23
g3
F0.053569249999999694
sg4
F32.37637362637363
sg5
F58.135240696561965
sg6
F10.843406593406593
sg7
F0.2827379512017467
sg8
F0.0
sg9
F0.0
ssS'ego_4_1024,seed_0,teb_small_radius'
p24
(dp25
g3
F0.4649636481994459
sg4
F54.930747922437675
sg5
F56.96710745551123
sg6
F16.922437673130194
sg9
F0.034237288135593194
sg8
F0.0
sg7
F0.7737054088215959
ssS'ego_4_256,seed_0,teb_big_radius'
p26
(dp27
g3
F0.2965466962750723
sg4
F46.49283667621776
sg5
F58.19830213451608
sg6
F16.722063037249285
sg9
F0.0
sg8
F0.0
sg7
F0.6916332932180851
ssS'ego_4_1024,seed_0,teb_big_radius'
p28
(dp29
g3
F0.39847064756446987
sg4
F54.83094555873925
sg5
F58.40559757855172
sg6
F16.96275071633238
sg9
F0.03938185443668996
sg8
F0.0
sg7
F0.7589870211459737
ssS'ego_5_512,seed_0,teb_big_radius'
p30
(dp31
g3
F0.7386324102564101
sg4
F78.97720797720798
sg5
F57.349639627064896
sg6
F22.125356125356124
sg9
F0.010747756729810562
sg8
F0.0
sg7
F1.0535620990415318
ssS'ego_5_256,seed_0,teb_small_radius'
p32
(dp33
g3
F0.6907682784090908
sg4
F70.41477272727273
sg5
F57.01701780759659
sg6
F21.571022727272727
sg9
F0.0
sg8
F0.0
sg7
F0.9685220474383255
ssS'ego_5_256,seed_0,teb_big_radius'
p34
(dp35
g3
F0.6712817976878618
sg4
F70.46531791907515
sg5
F57.70987166770564
sg6
F21.5
sg7
F0.9496405931656935
sg8
F0.0
sg9
F0.0
ssS'ego_3_256,seed_0,teb_small_radius'
p36
(dp37
g3
F0.02056960597826076
sg4
F28.39673913043478
sg5
F57.12600542279942
sg6
F10.809782608695652
sg7
F0.27647670951704406
sg8
F0.0
sg9
F0.0
ssS'ego_3_512,seed_0,teb_small_radius'
p38
(dp39
g3
F0.028545772602739647
sg4
F30.627397260273973
sg5
F57.91216412373379
sg6
F10.841095890410958
sg7
F0.26479600785153407
sg8
F0.0
sg9
F0.0
ssS'ego_5_512,seed_0,teb_reg_radius'
p40
(dp41
g3
F0.6932232342857141
sg4
F78.89714285714285
sg5
F57.38959114561852
sg6
F22.1
sg7
F1.0434433609660565
sg8
F0.0
sg9
F0.005962113659022932
ssS'ego_4_1024,seed_0,teb_reg_radius'
p42
(dp43
g3
F0.378103477777778
sg4
F54.952777777777776
sg5
F57.39668431870756
sg6
F16.919444444444444
sg7
F0.7683670080862528
sg8
F0.0
sg9
F0.035393818544366934
ssS'ego_4_512,seed_0,teb_small_radius'
p44
(dp45
g3
F0.37382973333333325
sg4
F50.75
sg5
F57.34851788448936
sg6
F16.75
sg9
F0.0
sg8
F0.0
sg7
F0.723374490466799
ssS'ego_3_256,seed_0,teb_big_radius'
p46
(dp47
g3
F0.031266191256830486
sg4
F28.505464480874316
sg5
F57.82367970839519
sg6
F10.857923497267759
sg7
F0.2732301882783886
sg8
F0.0
sg9
F0.0
ssS'ego_3_1024,seed_0,teb_reg_radius'
p48
(dp49
g3
F0.04520330684931498
sg4
F32.33150684931507
sg5
F57.78245785207742
sg6
F10.92054794520548
sg9
F0.003988035892323033
sg8
F0.0
sg7
F0.30191371928571387
ssS'ego_3_512,seed_0,teb_big_radius'
p50
(dp51
g3
F0.03176576519336997
sg4
F30.37845303867403
sg5
F58.2595640461832
sg6
F10.820441988950277
sg7
F0.27833216150442514
sg8
F0.0
sg9
F0.0
ssS'ego_4_512,seed_0,teb_reg_radius'
p52
(dp53
g3
F0.4336085431754876
sg4
F50.749303621169915
sg5
F57.10968714511888
sg6
F16.76044568245125
sg9
F0.0006979062811565307
sg8
F0.0
sg7
F0.7256603523248207
ssS'ego_5_1024,seed_0,teb_reg_radius'
p54
(dp55
g3
F0.7165796855524081
sg4
F88.42209631728045
sg5
F57.02897071350131
sg6
F22.5014164305949
sg9
F0.15659022931206398
sg8
F0.0
sg7
F1.0649624251968433
ssS'ego_3_256,seed_0,teb_reg_radius'
p56
(dp57
g3
F0.040793357923497094
sg4
F28.420765027322403
sg5
F57.60633898902266
sg6
F10.806010928961749
sg7
F0.2717381645569624
sg8
F0.0
sg9
F0.0
ssS'ego_5_256,seed_0,teb_reg_radius'
p58
(dp59
g3
F0.7064084062499995
sg4
F70.5284090909091
sg5
F56.562057208192165
sg6
F21.56534090909091
sg9
F1.9940179461615153e-05
sg8
F0.0
sg7
F0.9668491023869328
ssS'ego_4_256,seed_0,teb_small_radius'
p60
(dp61
g3
F0.33254664066852396
sg4
F46.43454038997214
sg5
F57.47878648605569
sg6
F16.668523676880223
sg9
F0.0
sg8
F0.0
sg7
F0.7082604913907308
ss.