(dp0
S'42'
p1
(dp2
S'controller_type'
p3
S'costmapver'
p4
sS'graphGen'
p5
F555.4039915263161
sS'egoradius'
p6
F3.0
sS'num_gaps'
p7
F11.659279778393351
sS'update'
p8
F196.20723774576282
sS'optimizeGraph'
p9
F58126.07091460989
sS'obsCount'
p10
F35.795013850415515
sS'modelradius'
p11
S'0_09'
p12
sS'egoresolu'
p13
F256.0
sS'seed'
p14
F0.0
sS'calculateEquivalenceClass'
p15
F699.1515916771338
sS'insertPoints'
p16
F47.00857029611174
ssS'48'
p17
(dp18
g3
S'costmapver'
p19
sg5
I1
sg6
F4.0
sg7
I1
sg8
F365.44141387537366
sg9
F66157.88695856117
sg10
F10.915032679738562
sg11
S'0_27'
p20
sg13
F512.0
sg14
F0.0
sg15
F304.08694201834714
sg16
F45.81140453738778
ssS'43'
p21
(dp22
g3
S'costmapver'
p23
sg5
F1458.7657155288223
sg6
F5.0
sg7
F21.593984962406015
sg8
F322.3113747996012
sg9
F47690.40589044937
sg10
F70.30075187969925
sg11
S'0_18'
p24
sg13
F256.0
sg14
F0.0
sg15
F1123.7553306547254
sg16
F48.49958903190434
ssS'49'
p25
(dp26
g3
S'costmapver'
p27
sg5
F580.2960360227918
sg6
F3.0
sg7
F11.72934472934473
sg8
F445.2942039601202
sg9
F59586.41868212978
sg10
F45.27065527065527
sg11
S'0_09'
p28
sg13
F1024.0
sg14
F0.0
sg15
F711.763194435643
sg16
F47.46431112961109
ssS'52'
p29
(dp30
g3
S'costmapver'
p31
sg5
F1032.753688425595
sg6
F4.0
sg7
F18.946428571428573
sg8
F365.4459399042871
sg9
F59318.118899045876
sg10
F67.24107142857143
sg11
S'0_09'
p32
sg13
F512.0
sg14
F0.0
sg15
F1314.6343172843078
sg16
F47.00883906081756
ssS'53'
p33
(dp34
g3
S'costmapver'
p35
sg5
I1
sg6
F3.0
sg7
I1
sg8
F199.13337901296086
sg9
F66418.77449203213
sg10
F10.957377049180328
sg11
S'0_27'
p36
sg13
F256.0
sg14
F0.0
sg15
F297.0284491928696
sg16
F46.52940560618154
ssS'24'
p37
(dp38
g3
S'scalability'
p39
sg5
F708.4768457237241
sg6
F4.0
sg7
F16.624624624624623
sg8
F240.89700037487532
sg9
F62915.01545746677
sg10
F46.17717717717718
sg11
S'0_27'
p40
sg13
F256.0
sg14
F0.0
sg15
F1228.4839373333314
sg16
F45.32257692422725
ssS'25'
p41
(dp42
g3
S'scalability'
p43
sg5
F810.9462574604906
sg6
F4.0
sg7
F16.713896457765667
sg8
F356.1632580179467
sg9
F57090.71939041304
sg10
F50.71117166212534
sg11
S'0_09'
p44
sg13
F512.0
sg14
F0.0
sg15
F1075.154011318898
sg16
F45.402199475573276
ssS'26'
p45
(dp46
g3
S'scalability'
p47
sg5
F402.57082770710036
sg6
F3.0
sg7
F10.757396449704142
sg8
F189.86958851944138
sg9
F64180.29754642425
sg10
F28.16568047337278
sg11
S'0_27'
p48
sg13
F256.0
sg14
F0.0
sg15
F744.3945831325968
sg16
F44.570870329012934
ssS'27'
p49
(dp50
g3
S'costmapver'
p51
sg5
F1004.4271071749273
sg6
F4.0
sg7
F18.749271137026238
sg8
F240.23383267397804
sg9
F58625.19989457057
sg10
F57.69679300291545
sg11
S'0_09'
p52
sg13
F256.0
sg14
F0.0
sg15
F1222.8209054065658
sg16
F46.05784814855439
ssS'20'
p53
(dp54
g3
S'scalability'
p55
sg5
F1036.0790166283186
sg6
F5.0
sg7
F22.168141592920353
sg8
F456.7722378933199
sg9
F62026.291297818105
sg10
F78.48377581120944
sg11
S'0_27'
p56
sg13
F512.0
sg14
F0.0
sg15
F1609.8117896570946
sg16
F44.14788614955134
ssS'21'
p57
(dp58
g3
S'scalability'
p59
sg5
F715.1954632600002
sg6
F4.0
sg7
F16.74
sg8
F352.6969816161514
sg9
F61145.1991926717
sg10
F50.77142857142857
sg11
S'0_27'
p60
sg13
F512.0
sg14
F0.0
sg15
F1261.46374816817
sg16
F44.637971742771676
ssS'22'
p61
(dp62
g3
S'scalability'
p63
sg5
F504.0869110624998
sg6
F3.0
sg7
F10.815217391304348
sg8
F440.2813756979059
sg9
F58622.27917298635
sg10
F32.21739130434783
sg11
S'0_09'
p64
sg13
F1024.0
sg14
F0.0
sg15
F686.3163675643284
sg16
F46.21140880458628
ssS'23'
p65
(dp66
g3
S'scalability'
p67
sg5
F415.3305782404689
sg6
F3.0
sg7
F10.862170087976539
sg8
F429.2963712602193
sg9
F63761.0634869366
sg10
F32.25806451612903
sg11
S'0_27'
p68
sg13
F1024.0
sg14
F0.0
sg15
F770.5462547428303
sg16
F44.96380768195413
ssS'46'
p69
(dp70
g3
S'costmapver'
p71
sg5
F1785.6152272982474
sg6
F5.0
sg7
F26.994152046783626
sg8
F739.7666291485544
sg9
F57815.461228271786
sg10
F121.28362573099415
sg11
S'0_09'
p72
sg13
F1024.0
sg14
F0.0
sg15
F1716.9140338956433
sg16
F47.45789891226316
ssS'47'
p73
(dp74
g3
S'costmapver'
p75
sg5
I1
sg6
F5.0
sg7
I1
sg8
F470.9453717527421
sg9
F66566.50316117938
sg10
F10.927392739273927
sg11
S'0_27'
p76
sg13
F512.0
sg14
F0.0
sg15
F289.6392349156131
sg16
F45.75747856530411
ssS'44'
p77
(dp78
g3
S'costmapver'
p79
sg5
I1
sg6
F3.0
sg7
I1
sg8
F288.61356653040883
sg9
F66267.80979078199
sg10
F11.151315789473685
sg11
S'0_27'
p80
sg13
F512.0
sg14
F0.0
sg15
F305.5156624942644
sg16
F46.32146393120629
ssS'45'
p81
(dp82
g3
S'costmapver'
p83
sg5
F1016.3332645536588
sg6
F4.0
sg7
F16.651219512195123
sg8
F248.56065115453654
sg9
F48040.6822174835
sg10
F46.485365853658536
sg11
S'0_18'
p84
sg13
F256.0
sg14
F0.0
sg15
F884.1853463529675
sg16
F47.30491915852437
ssS'28'
p85
(dp86
g3
S'costmapver'
p87
sg5
F600.923927591549
sg6
F3.0
sg7
F10.863849765258216
sg8
F198.59149256729822
sg9
F48247.64518908275
sg10
F28.495305164319248
sg11
S'0_18'
p88
sg13
F256.0
sg14
F0.0
sg15
F576.5409636651314
sg16
F47.59352155234298
ssS'29'
p89
(dp90
g3
S'costmapver'
p91
sg5
F1077.6535294452742
sg6
F4.0
sg7
F16.733830845771145
sg8
F376.32260810867376
sg9
F48144.85242506475
sg10
F50.701492537313435
sg11
S'0_18'
p92
sg13
F512.0
sg14
F0.0
sg15
F905.9851250211249
sg16
F48.99859907676971
ssS'40'
p93
(dp94
g3
S'costmapver'
p95
sg5
F1096.9650236210828
sg6
F4.0
sg7
F18.97150997150997
sg8
F570.4904580348946
sg9
F58018.37154755171
sg10
F75.91452991452991
sg11
S'0_09'
p96
sg13
F1024.0
sg14
F0.0
sg15
F1222.0386487823598
sg16
F48.08038826121633
ssS'41'
p97
(dp98
g3
S'costmapver'
p99
sg5
I1
sg6
F4.0
sg7
I1
sg8
F575.0280977058836
sg9
F66497.01507243473
sg10
F11.149837133550488
sg11
S'0_27'
p100
sg13
F1024.0
sg14
F0.0
sg15
F309.1562349955512
sg16
F47.1170710847457
ssS'1'
p101
(dp102
g3
S'scalability'
p103
sg5
F612.9828552151589
sg6
F3.0
sg7
F10.7799511002445
sg8
F195.55656258424708
sg9
F49823.0302193427
sg10
F28.322738386308068
sg11
S'0_18'
p104
sg13
F256.0
sg14
F0.0
sg15
F579.9883715753648
sg16
F47.09760447856432
ssS'0'
p105
(dp106
g3
S'scalability'
p107
sg5
F803.3206704152542
sg6
F4.0
sg7
F16.666666666666668
sg8
F245.84270288434695
sg9
F58392.030329562105
sg10
F46.3728813559322
sg11
S'0_09'
p108
sg13
F256.0
sg14
F0.0
sg15
F1078.7582700651571
sg16
F45.947677890328976
ssS'3'
p109
(dp110
g3
S'scalability'
p111
sg5
F1162.1610617530123
sg6
F5.0
sg7
F22.30421686746988
sg8
F721.3774776610171
sg9
F62755.48048202456
sg10
F87.93072289156626
sg11
S'0_27'
p112
sg13
F1024.0
sg14
F0.0
sg15
F1778.0730749418306
sg16
F45.21766543170499
ssS'2'
p113
(dp114
g3
S'scalability'
p115
sg5
F1069.8920964801976
sg6
F4.0
sg7
F16.747524752475247
sg8
F375.0516436350946
sg9
F48354.04783483102
sg10
F50.722772277227726
sg11
S'0_18'
p116
sg13
F512.0
sg14
F0.0
sg15
F892.5143387488882
sg16
F47.782197299102656
ssS'5'
p117
(dp118
g3
S'scalability'
p119
sg5
F494.00901226562513
sg6
F3.0
sg7
F5.65625
sg8
F954.8386951924217
sg9
F45567.797018455756
sg10
F17.8125
sg11
S'0_18'
p120
sg13
F1024.0
sg14
F0.0
sg15
F399.35768391505803
sg16
F102.12433267497497
ssS'4'
p121
(dp122
g3
S'scalability'
p123
sg5
F1161.8962442784095
sg6
F5.0
sg7
F21.505681818181817
sg8
F311.45412263110643
sg9
F57901.52768419174
sg10
F70.20170454545455
sg11
S'0_09'
p124
sg13
F256.0
sg14
F0.0
sg15
F1382.4538093753993
sg16
F44.86148163609173
ssS'7'
p125
(dp126
g3
S'scalability'
p127
sg5
F1115.927626536341
sg6
F4.0
sg7
F16.94736842105263
sg8
F580.7093905583251
sg9
F48519.706565773224
sg10
F54.82706766917293
sg11
S'0_18'
p128
sg13
F1024.0
sg14
F0.0
sg15
F920.6475250657061
sg16
F49.10400740578263
ssS'6'
p129
(dp130
g3
S'scalability'
p131
sg5
F1757.006244966922
sg6
F5.0
sg7
F22.46819338422392
sg8
F771.9076259282167
sg9
F47953.90903263112
sg10
F88.04834605597965
sg11
S'0_18'
p132
sg13
F1024.0
sg14
F0.0
sg15
F1188.4751773221042
sg16
F50.14788305682958
ssS'9'
p133
(dp134
g3
S'scalability'
p135
sg5
F1225.954553020057
sg6
F5.0
sg7
F22.10028653295129
sg8
F468.6426051645067
sg9
F57640.92783921076
sg10
F78.810888252149
sg11
S'0_09'
p136
sg13
F512.0
sg14
F0.0
sg15
F1414.3114613779217
sg16
F45.655627716849445
ssS'8'
p137
(dp138
g3
S'scalability'
p139
sg5
F965.8265715958703
sg6
F5.0
sg7
F21.47787610619469
sg8
F306.14652588733804
sg9
F62166.32255216646
sg10
F70.09734513274336
sg11
S'0_27'
p140
sg13
F256.0
sg14
F0.0
sg15
F1597.3126692874696
sg16
F43.54862677766698
ssS'51'
p141
(dp142
g3
S'costmapver'
p143
sg5
I1
sg6
F4.0
sg7
I1
sg8
F241.64511573280186
sg9
F67348.29965740348
sg10
F11.046822742474916
sg11
S'0_27'
p144
sg13
F256.0
sg14
F0.0
sg15
F304.20327091000615
sg16
F46.0056472951146
ssS'13'
p145
(dp146
g3
S'scalability'
p147
sg5
F865.307454604046
sg6
F4.0
sg7
F16.895953757225435
sg8
F556.1957294745768
sg9
F59448.36872615445
sg10
F54.627167630057805
sg11
S'0_09'
p148
sg13
F1024.0
sg14
F0.0
sg15
F1160.4007434822456
sg16
F46.77806194117655
ssS'12'
p149
(dp150
g3
S'scalability'
p151
sg5
F489.6505176393443
sg6
F3.0
sg7
F10.795081967213115
sg8
F284.3935417208375
sg9
F58727.69061094816
sg10
F30.55464480874317
sg11
S'0_09'
p152
sg13
F512.0
sg14
F0.0
sg15
F682.062298806286
sg16
F45.618839252243276
ssS'11'
p153
(dp154
g3
S'scalability'
p155
sg5
F1610.345848505103
sg6
F5.0
sg7
F22.112244897959183
sg8
F490.736653090728
sg9
F48434.88769580865
sg10
F78.92602040816327
sg11
S'0_18'
p156
sg13
F512.0
sg14
F0.0
sg15
F1180.0098009395085
sg16
F48.14488805184444
ssS'10'
p157
(dp158
g3
S'scalability'
p159
sg5
F648.0697835811135
sg6
F3.0
sg7
F10.815980629539952
sg8
F292.3698108245267
sg9
F49001.42674908245
sg10
F30.60774818401937
sg11
S'0_18'
p160
sg13
F512.0
sg14
F0.0
sg15
F605.2055388132916
sg16
F46.92122506480562
ssS'39'
p161
(dp162
g3
S'costmapver'
p163
sg5
F555.2872543685717
sg6
F3.0
sg7
F11.771428571428572
sg8
F288.04171959720867
sg9
F60028.82955366957
sg10
F40.32
sg11
S'0_09'
p164
sg13
F512.0
sg14
F0.0
sg15
F717.5327034302985
sg16
F46.9483067387836
ssS'38'
p165
(dp166
g3
S'costmapver'
p167
sg5
F1636.518888977159
sg6
F5.0
sg7
F22.18274111675127
sg8
F489.342241073779
sg9
F47777.70723008094
sg10
F78.83756345177665
sg11
S'0_18'
p168
sg13
F512.0
sg14
F0.0
sg15
F1183.992273320634
sg16
F47.66741197407771
ssS'15'
p169
(dp170
g3
S'scalability'
p171
sg5
F469.49848161748616
sg6
F3.0
sg7
F10.770491803278688
sg8
F191.74079443469583
sg9
F58442.098662574084
sg10
F28.273224043715846
sg11
S'0_09'
p172
sg13
F256.0
sg14
F0.0
sg15
F643.2760874304543
sg16
F45.049159504486525
ssS'14'
p173
(dp174
g3
S'scalability'
p175
sg5
F698.2083261186941
sg6
F4.0
sg7
F16.91394658753709
sg8
F546.9149260299102
sg9
F62670.306906346064
sg10
F54.71513353115727
sg11
S'0_27'
p176
sg13
F1024.0
sg14
F0.0
sg15
F1290.4927410645746
sg16
F45.5367297158525
ssS'17'
p177
(dp178
g3
S'scalability'
p179
sg5
F393.31436371176454
sg6
F3.0
sg7
F10.814705882352941
sg8
F281.7217985473584
sg9
F64462.3881917739
sg10
F30.491176470588236
sg11
S'0_27'
p180
sg13
F512.0
sg14
F0.0
sg15
F762.1655068742957
sg16
F44.429378733798615
ssS'16'
p181
(dp182
g3
S'scalability'
p183
sg5
F1477.9511955240505
sg6
F5.0
sg7
F21.60759493670886
sg8
F323.84925125024944
sg9
F47887.29790846011
sg10
F70.37215189873417
sg11
S'0_18'
p184
sg13
F256.0
sg14
F0.0
sg15
F1116.6873054880302
sg16
F48.316225202392815
ssS'19'
p185
(dp186
g3
S'scalability'
p187
sg5
F1309.7169250260117
sg6
F5.0
sg7
F22.3757225433526
sg8
F729.3549085483551
sg9
F58122.712359774036
sg10
F88.1878612716763
sg11
S'0_09'
p188
sg13
F1024.0
sg14
F0.0
sg15
F1478.0589647977233
sg16
F47.839878983050795
ssS'32'
p189
(dp190
g3
S'costmapver'
p191
sg5
F630.8368085849514
sg6
F3.0
sg7
F10.859223300970873
sg8
F443.2120425064806
sg9
F49971.35042638194
sg10
F32.3373786407767
sg11
S'0_18'
p192
sg13
F1024.0
sg14
F0.0
sg15
F592.90758561256
sg16
F47.32975759521434
ssS'31'
p193
(dp194
g3
S'costmapver'
p195
sg5
F1506.802595934718
sg6
F5.0
sg7
F25.80712166172107
sg8
F320.18603043569294
sg9
F58183.63656832982
sg10
F85.7299703264095
sg11
S'0_09'
p196
sg13
F256.0
sg14
F0.0
sg15
F1598.6693543502392
sg16
F46.376411079760686
ssS'30'
p197
(dp198
g3
S'costmapver'
p199
sg5
I1
sg6
F5.0
sg7
I1
sg8
F726.5437727906275
sg9
F68466.28086974772
sg10
F10.95578231292517
sg11
S'0_27'
p200
sg13
F1024.0
sg14
F0.0
sg15
F297.37624354031874
sg16
F46.064865352941105
ssS'37'
p201
(dp202
g3
S'costmapver'
p203
sg5
F590.1988698665106
sg6
F3.0
sg7
F10.840749414519907
sg8
F285.4636504685941
sg9
F48636.26206806467
sg10
F30.662763466042154
sg11
S'0_18'
p204
sg13
F512.0
sg14
F0.0
sg15
F579.27063870115
sg16
F47.862032068793575
ssS'36'
p205
(dp206
g3
S'costmapver'
p207
sg5
F1674.5714542529413
sg6
F5.0
sg7
F26.66764705882353
sg8
F478.65975658324965
sg9
F58472.31961364875
sg10
F106.33529411764705
sg11
S'0_09'
p208
sg13
F512.0
sg14
F0.0
sg15
F1696.9014581822664
sg16
F46.88049483349952
ssS'35'
p209
(dp210
g3
S'costmapver'
p211
sg5
I1
sg6
F5.0
sg7
I1
sg8
F311.8031136889331
sg9
F70194.03535585475
sg10
F10.652482269503546
sg11
S'0_27'
p212
sg13
F256.0
sg14
F0.0
sg15
F291.4972619070583
sg16
F44.95957395014951
ssS'34'
p213
(dp214
g3
S'costmapver'
p215
sg5
F1120.5739236875008
sg6
F4.0
sg7
F16.93
sg8
F580.7650834217349
sg9
F48263.60230928428
sg10
F54.645
sg11
S'0_18'
p216
sg13
F1024.0
sg14
F0.0
sg15
F924.2403640952372
sg16
F49.18762790329014
ssS'33'
p217
(dp218
g3
S'costmapver'
p219
sg5
F1750.7577119002565
sg6
F5.0
sg7
F22.470588235294116
sg8
F763.7607057447651
sg9
F47840.389355336956
sg10
F88.24040920716112
sg11
S'0_18'
p220
sg13
F1024.0
sg14
F0.0
sg15
F1185.4719816016757
sg16
F49.070491976071814
ssS'18'
p221
(dp222
g3
S'scalability'
p223
sg5
F1050.4707475625003
sg6
F4.0
sg7
F16.62
sg8
F243.63877913559335
sg9
F48879.91653702843
sg10
F46.3925
sg11
S'0_18'
p224
sg13
F256.0
sg14
F0.0
sg15
F926.0862020132179
sg16
F47.81109022033895
ssS'50'
p225
(dp226
g3
S'costmapver'
p227
sg5
I1
sg6
F3.0
sg7
I1
sg8
F442.3619956949156
sg9
F67990.56408125821
sg10
F10.81418918918919
sg11
S'0_27'
p228
sg13
F1024.0
sg14
F0.0
sg15
F285.0063217608106
sg16
F46.795838764705884
ss.