(dp0
S'24'
p1
(dp2
S'graphGen'
p3
F0.7064084062499995
sS'egoradius'
p4
F5.0
sS'num_gaps'
p5
F21.56534090909091
sS'update'
p6
F1.9940179461615153e-05
sS'optimizeGraph'
p7
F56.562057208192165
sS'obsCount'
p8
F70.5284090909091
sS'modelradius'
p9
S'reg'
p10
sS'egoresolu'
p11
F256.0
sS'seed'
p12
F0.0
sS'calculateEquivalenceClass'
p13
F0.9668491023869328
sS'insertPoints'
p14
F0.0
ssS'25'
p15
(dp16
g3
F0.36189799439775905
sg4
F4.0
sg5
F16.756302521008404
sg6
F0.0
sg7
F57.62632413885185
sg8
F50.67226890756302
sg9
S'big'
p17
sg11
F512.0
sg12
F0.0
sg13
F0.7326645478901556
sg14
F0.0
ssS'22'
p18
(dp19
g3
F0.4649636481994459
sg4
F4.0
sg5
F16.922437673130194
sg6
F0.034237288135593194
sg7
F56.96710745551123
sg8
F54.930747922437675
sg9
S'small'
p20
sg11
F1024.0
sg12
F0.0
sg13
F0.7737054088215959
sg14
F0.0
ssS'26'
p21
(dp22
g3
F0.031266191256830486
sg4
F3.0
sg5
F10.857923497267759
sg6
F0.0
sg7
F57.82367970839519
sg8
F28.505464480874316
sg9
S'big'
p23
sg11
F256.0
sg12
F0.0
sg13
F0.2732301882783886
sg14
F0.0
ssS'20'
p24
(dp25
g3
F0.040793357923497094
sg4
F3.0
sg5
F10.806010928961749
sg6
F0.0
sg7
F57.60633898902266
sg8
F28.420765027322403
sg9
S'reg'
p26
sg11
F256.0
sg12
F0.0
sg13
F0.2717381645569624
sg14
F0.0
ssS'21'
p27
(dp28
g3
F0.6712817976878618
sg4
F5.0
sg5
F21.5
sg6
F0.0
sg7
F57.70987166770564
sg8
F70.46531791907515
sg9
S'big'
p29
sg11
F256.0
sg12
F0.0
sg13
F0.9496405931656935
sg14
F0.0
ssS'11'
p30
(dp31
g3
F0.33254664066852396
sg4
F4.0
sg5
F16.668523676880223
sg6
F0.0
sg7
F57.47878648605569
sg8
F46.43454038997214
sg9
S'small'
p32
sg11
F256.0
sg12
F0.0
sg13
F0.7082604913907308
sg14
F0.0
ssS'10'
p33
(dp34
g3
F0.7386324102564101
sg4
F5.0
sg5
F22.125356125356124
sg6
F0.010747756729810562
sg7
F57.349639627064896
sg8
F78.97720797720798
sg9
S'big'
p35
sg11
F512.0
sg12
F0.0
sg13
F1.0535620990415318
sg14
F0.0
ssS'13'
p36
(dp37
g3
F0.04520330684931498
sg4
F3.0
sg5
F10.92054794520548
sg6
F0.003988035892323033
sg7
F57.78245785207742
sg8
F32.33150684931507
sg9
S'reg'
p38
sg11
F1024.0
sg12
F0.0
sg13
F0.30191371928571387
sg14
F0.0
ssS'12'
p39
(dp40
g3
F0.37382973333333325
sg4
F4.0
sg5
F16.75
sg6
F0.0
sg7
F57.34851788448936
sg8
F50.75
sg9
S'small'
p41
sg11
F512.0
sg12
F0.0
sg13
F0.723374490466799
sg14
F0.0
ssS'15'
p42
(dp43
g3
F0.8347405784883718
sg4
F5.0
sg5
F22.450581395348838
sg6
F0.15938185443669003
sg7
F57.97980116085254
sg8
F88.25872093023256
sg9
S'small'
p44
sg11
F1024.0
sg12
F0.0
sg13
F1.098672597883592
sg14
F0.0
ssS'14'
p45
(dp46
g3
F0.8570052181303125
sg4
F5.0
sg5
F22.46175637393768
sg6
F0.15337986041874363
sg7
F57.200720043092275
sg8
F88.60906515580737
sg9
S'big'
p47
sg11
F1024.0
sg12
F0.0
sg13
F1.1331040770243583
sg14
F0.0
ssS'17'
p48
(dp49
g3
F0.03730746703296676
sg4
F3.0
sg5
F10.87087912087912
sg6
F0.000997008973080758
sg7
F58.39501506403377
sg8
F32.47802197802198
sg9
S'small'
p50
sg11
F1024.0
sg12
F0.0
sg13
F0.3008315059435347
sg14
F0.0
ssS'16'
p51
(dp52
g3
F0.7210436676384843
sg4
F5.0
sg5
F22.24198250728863
sg6
F0.004965104685942173
sg7
F57.95432036013749
sg8
F79.02915451895043
sg9
S'small'
p53
sg11
F512.0
sg12
F0.0
sg13
F1.0430705421293291
sg14
F0.0
ssS'19'
p54
(dp55
g3
F0.2965466962750723
sg4
F4.0
sg5
F16.722063037249285
sg6
F0.0
sg7
F58.19830213451608
sg8
F46.49283667621776
sg9
S'big'
p56
sg11
F256.0
sg12
F0.0
sg13
F0.6916332932180851
sg14
F0.0
ssS'18'
p57
(dp58
g3
F0.02963562464985975
sg4
F3.0
sg5
F10.84873949579832
sg6
F0.0
sg7
F58.84769661179176
sg8
F30.596638655462186
sg9
S'reg'
p59
sg11
F512.0
sg12
F0.0
sg13
F0.2752971066867021
sg14
F0.0
ssS'23'
p60
(dp61
g3
F0.02056960597826076
sg4
F3.0
sg5
F10.809782608695652
sg6
F0.0
sg7
F57.12600542279942
sg8
F28.39673913043478
sg9
S'small'
p62
sg11
F256.0
sg12
F0.0
sg13
F0.27647670951704406
sg14
F0.0
ssS'1'
p63
(dp64
g3
F0.7165796855524081
sg4
F5.0
sg5
F22.5014164305949
sg6
F0.15659022931206398
sg7
F57.02897071350131
sg8
F88.42209631728045
sg9
S'reg'
p65
sg11
F1024.0
sg12
F0.0
sg13
F1.0649624251968433
sg14
F0.0
ssS'0'
p66
(dp67
g3
F0.053569249999999694
sg4
F3.0
sg5
F10.843406593406593
sg6
F0.0
sg7
F58.135240696561965
sg8
F32.37637362637363
sg9
S'big'
p68
sg11
F1024.0
sg12
F0.0
sg13
F0.2827379512017467
sg14
F0.0
ssS'3'
p69
(dp70
g3
F0.6907682784090908
sg4
F5.0
sg5
F21.571022727272727
sg6
F0.0
sg7
F57.01701780759659
sg8
F70.41477272727273
sg9
S'small'
p71
sg11
F256.0
sg12
F0.0
sg13
F0.9685220474383255
sg14
F0.0
ssS'2'
p72
(dp73
g3
F0.028545772602739647
sg4
F3.0
sg5
F10.841095890410958
sg6
F0.0
sg7
F57.91216412373379
sg8
F30.627397260273973
sg9
S'small'
p74
sg11
F512.0
sg12
F0.0
sg13
F0.26479600785153407
sg14
F0.0
ssS'5'
p75
(dp76
g3
F0.03176576519336997
sg4
F3.0
sg5
F10.820441988950277
sg6
F0.0
sg7
F58.2595640461832
sg8
F30.37845303867403
sg9
S'big'
p77
sg11
F512.0
sg12
F0.0
sg13
F0.27833216150442514
sg14
F0.0
ssS'4'
p78
(dp79
g3
F0.6932232342857141
sg4
F5.0
sg5
F22.1
sg6
F0.005962113659022932
sg7
F57.38959114561852
sg8
F78.89714285714285
sg9
S'reg'
p80
sg11
F512.0
sg12
F0.0
sg13
F1.0434433609660565
sg14
F0.0
ssS'7'
p81
(dp82
g3
F0.378103477777778
sg4
F4.0
sg5
F16.919444444444444
sg6
F0.035393818544366934
sg7
F57.39668431870756
sg8
F54.952777777777776
sg9
S'reg'
p83
sg11
F1024.0
sg12
F0.0
sg13
F0.7683670080862528
sg14
F0.0
ssS'6'
p84
(dp85
g3
F0.283224977653631
sg4
F4.0
sg5
F16.645251396648046
sg6
F0.0
sg7
F57.205132183035836
sg8
F46.41899441340782
sg9
S'reg'
p86
sg11
F256.0
sg12
F0.0
sg13
F0.6771868732943468
sg14
F0.0
ssS'9'
p87
(dp88
g3
F0.4336085431754876
sg4
F4.0
sg5
F16.76044568245125
sg6
F0.0006979062811565307
sg7
F57.10968714511888
sg8
F50.749303621169915
sg9
S'reg'
p89
sg11
F512.0
sg12
F0.0
sg13
F0.7256603523248207
sg14
F0.0
ssS'8'
p90
(dp91
g3
F0.39847064756446987
sg4
F4.0
sg5
F16.96275071633238
sg6
F0.03938185443668996
sg7
F58.40559757855172
sg8
F54.83094555873925
sg9
S'big'
p92
sg11
F1024.0
sg12
F0.0
sg13
F0.7589870211459737
sg14
F0.0
ss.