(dp0
S'42'
p1
(dp2
S'controller_type'
p3
S'costmapver'
p4
sS'graphGen'
p5
F555.4039915263161
sS'egoradius'
p6
F3.0
sS'num_gaps'
p7
F11.659279778393351
sS'update'
p8
F196.20723774576282
sS'feasibility'
p9
F37.491831232687026
sS'optimizeGraph'
p10
F58126.07091460989
sS'obsCount'
p11
F35.795013850415515
sS'modelradius'
p12
S'0_09'
p13
sS'egoresolu'
p14
F256.0
sS'seed'
p15
F0.0
sS'calculateEquivalenceClass'
p16
F699.1515916771338
sS'insertPoints'
p17
F47.00857029611174
ssS'48'
p18
(dp19
g3
S'costmapver'
p20
sg5
I1
sg6
F4.0
sg8
F365.44141387537366
sg9
F30.191185558823534
sg10
F66157.88695856117
sg11
F10.915032679738562
sg12
S'0_27'
p21
sg14
F512.0
sg15
F0.0
sg7
I1
sg16
F304.08694201834714
sg17
F45.81140453738778
ssS'43'
p22
(dp23
g3
S'costmapver'
p24
sg5
F1458.7657155288223
sg6
F5.0
sg7
F21.593984962406015
sg8
F322.3113747996012
sg9
F12.23940120050125
sg10
F47690.40589044937
sg11
F70.30075187969925
sg12
S'0_18'
p25
sg14
F256.0
sg15
F0.0
sg16
F1123.7553306547254
sg17
F48.49958903190434
ssS'49'
p26
(dp27
g3
S'costmapver'
p28
sg5
F580.2960360227918
sg6
F3.0
sg8
F445.2942039601202
sg9
F40.812681438746424
sg10
F59586.41868212978
sg11
F45.27065527065527
sg12
S'0_09'
p29
sg14
F1024.0
sg15
F0.0
sg7
F11.72934472934473
sg16
F711.763194435643
sg17
F47.46431112961109
ssS'52'
p30
(dp31
g3
S'costmapver'
p32
sg5
F1032.753688425595
sg6
F4.0
sg8
F365.4459399042871
sg9
F40.32822342559527
sg10
F59318.118899045876
sg11
F67.24107142857143
sg12
S'0_09'
p33
sg14
F512.0
sg15
F0.0
sg7
F18.946428571428573
sg16
F1314.6343172843078
sg17
F47.00883906081756
ssS'53'
p34
(dp35
g3
S'costmapver'
p36
sg5
I1
sg6
F3.0
sg8
F199.13337901296086
sg9
F30.074695022950817
sg10
F66418.77449203213
sg11
F10.957377049180328
sg12
S'0_27'
p37
sg14
F256.0
sg15
F0.0
sg7
I1
sg16
F297.0284491928696
sg17
F46.52940560618154
ssS'24'
p38
(dp39
g3
S'scalability'
p40
sg5
F708.4768457237241
sg6
F4.0
sg8
F240.89700037487532
sg9
F14.008061519519512
sg10
F62915.01545746677
sg11
F46.17717717717718
sg12
S'0_27'
p41
sg14
F256.0
sg15
F0.0
sg7
F16.624624624624623
sg16
F1228.4839373333314
sg17
F45.32257692422725
ssS'25'
p42
(dp43
g3
S'scalability'
p44
sg5
F810.9462574604906
sg6
F4.0
sg8
F356.1632580179467
sg9
F14.066759016348769
sg10
F57090.71939041304
sg11
F50.71117166212534
sg12
S'0_09'
p45
sg14
F512.0
sg15
F0.0
sg7
F16.713896457765667
sg16
F1075.154011318898
sg17
F45.402199475573276
ssS'26'
p46
(dp47
g3
S'scalability'
p48
sg5
F402.57082770710036
sg6
F3.0
sg8
F189.86958851944138
sg9
F14.12285272781064
sg10
F64180.29754642425
sg11
F28.16568047337278
sg12
S'0_27'
p49
sg14
F256.0
sg15
F0.0
sg7
F10.757396449704142
sg16
F744.3945831325968
sg17
F44.570870329012934
ssS'27'
p50
(dp51
g3
S'costmapver'
p52
sg5
F1004.4271071749273
sg6
F4.0
sg7
F18.749271137026238
sg8
F240.23383267397804
sg9
F41.88270684839652
sg10
F58625.19989457057
sg11
F57.69679300291545
sg12
S'0_09'
p53
sg14
F256.0
sg15
F0.0
sg16
F1222.8209054065658
sg17
F46.05784814855439
ssS'20'
p54
(dp55
g3
S'scalability'
p56
sg5
F1036.0790166283186
sg6
F5.0
sg7
F22.168141592920353
sg8
F456.7722378933199
sg9
F14.387668244837766
sg10
F62026.291297818105
sg11
F78.48377581120944
sg12
S'0_27'
p57
sg14
F512.0
sg15
F0.0
sg16
F1609.8117896570946
sg17
F44.14788614955134
ssS'21'
p58
(dp59
g3
S'scalability'
p60
sg5
F715.1954632600002
sg6
F4.0
sg7
F16.74
sg8
F352.6969816161514
sg9
F14.962807520000009
sg10
F61145.1991926717
sg11
F50.77142857142857
sg12
S'0_27'
p61
sg14
F512.0
sg15
F0.0
sg16
F1261.46374816817
sg17
F44.637971742771676
ssS'22'
p62
(dp63
g3
S'scalability'
p64
sg5
F504.0869110624998
sg6
F3.0
sg7
F10.815217391304348
sg8
F440.2813756979059
sg9
F12.940045396739139
sg10
F58622.27917298635
sg11
F32.21739130434783
sg12
S'0_09'
p65
sg14
F1024.0
sg15
F0.0
sg16
F686.3163675643284
sg17
F46.21140880458628
ssS'23'
p66
(dp67
g3
S'scalability'
p68
sg5
F415.3305782404689
sg6
F3.0
sg8
F429.2963712602193
sg9
F13.748834979472152
sg10
F63761.0634869366
sg11
F32.25806451612903
sg12
S'0_27'
p69
sg14
F1024.0
sg15
F0.0
sg7
F10.862170087976539
sg16
F770.5462547428303
sg17
F44.96380768195413
ssS'46'
p70
(dp71
g3
S'costmapver'
p72
sg5
F1785.6152272982474
sg6
F5.0
sg7
F26.994152046783626
sg8
F739.7666291485544
sg9
F40.992469780701754
sg10
F57815.461228271786
sg11
F121.28362573099415
sg12
S'0_09'
p73
sg14
F1024.0
sg15
F0.0
sg16
F1716.9140338956433
sg17
F47.45789891226316
ssS'47'
p74
(dp75
g3
S'costmapver'
p76
sg5
I1
sg6
F5.0
sg8
F470.9453717527421
sg9
F31.318649016501666
sg10
F66566.50316117938
sg11
F10.927392739273927
sg12
S'0_27'
p77
sg14
F512.0
sg15
F0.0
sg7
I1
sg16
F289.6392349156131
sg17
F45.75747856530411
ssS'44'
p78
(dp79
g3
S'costmapver'
p80
sg5
I1
sg6
F3.0
sg8
F288.61356653040883
sg9
F31.01872562171051
sg10
F66267.80979078199
sg11
F11.151315789473685
sg12
S'0_27'
p81
sg14
F512.0
sg15
F0.0
sg7
I1
sg16
F305.5156624942644
sg17
F46.32146393120629
ssS'45'
p82
(dp83
g3
S'costmapver'
p84
sg5
F1016.3332645536588
sg6
F4.0
sg8
F248.56065115453654
sg9
F12.312548304878044
sg10
F48040.6822174835
sg11
F46.485365853658536
sg12
S'0_18'
p85
sg14
F256.0
sg15
F0.0
sg7
F16.651219512195123
sg16
F884.1853463529675
sg17
F47.30491915852437
ssS'28'
p86
(dp87
g3
S'costmapver'
p88
sg5
F600.923927591549
sg6
F3.0
sg7
F10.863849765258216
sg8
F198.59149256729822
sg9
F12.692911302816887
sg10
F48247.64518908275
sg11
F28.495305164319248
sg12
S'0_18'
p89
sg14
F256.0
sg15
F0.0
sg16
F576.5409636651314
sg17
F47.59352155234298
ssS'29'
p90
(dp91
g3
S'costmapver'
p92
sg5
F1077.6535294452742
sg6
F4.0
sg8
F376.32260810867376
sg9
F12.567900805970138
sg10
F48144.85242506475
sg11
F50.701492537313435
sg12
S'0_18'
p93
sg14
F512.0
sg15
F0.0
sg7
F16.733830845771145
sg16
F905.9851250211249
sg17
F48.99859907676971
ssS'40'
p94
(dp95
g3
S'costmapver'
p96
sg5
F1096.9650236210828
sg6
F4.0
sg7
F18.97150997150997
sg8
F570.4904580348946
sg9
F41.28062115954418
sg10
F58018.37154755171
sg11
F75.91452991452991
sg12
S'0_09'
p97
sg14
F1024.0
sg15
F0.0
sg16
F1222.0386487823598
sg17
F48.08038826121633
ssS'41'
p98
(dp99
g3
S'costmapver'
p100
sg5
I1
sg6
F4.0
sg8
F575.0280977058836
sg9
F30.143393198697073
sg10
F66497.01507243473
sg11
F11.149837133550488
sg12
S'0_27'
p101
sg14
F1024.0
sg15
F0.0
sg7
I1
sg16
F309.1562349955512
sg17
F47.1170710847457
ssS'1'
p102
(dp103
g3
S'scalability'
p104
sg5
F612.9828552151589
sg6
F3.0
sg8
F195.55656258424708
sg9
F12.820674596577023
sg10
F49823.0302193427
sg11
F28.322738386308068
sg12
S'0_18'
p105
sg14
F256.0
sg15
F0.0
sg7
F10.7799511002445
sg16
F579.9883715753648
sg17
F47.09760447856432
ssS'0'
p106
(dp107
g3
S'scalability'
p108
sg5
F803.3206704152542
sg6
F4.0
sg7
F16.666666666666668
sg8
F245.84270288434695
sg9
F13.206602186440675
sg10
F58392.030329562105
sg11
F46.3728813559322
sg12
S'0_09'
p109
sg14
F256.0
sg15
F0.0
sg16
F1078.7582700651571
sg17
F45.947677890328976
ssS'3'
p110
(dp111
g3
S'scalability'
p112
sg5
F1162.1610617530123
sg6
F5.0
sg7
F22.30421686746988
sg8
F721.3774776610171
sg9
F14.07813995180724
sg10
F62755.48048202456
sg11
F87.93072289156626
sg12
S'0_27'
p113
sg14
F1024.0
sg15
F0.0
sg16
F1778.0730749418306
sg17
F45.21766543170499
ssS'2'
p114
(dp115
g3
S'scalability'
p116
sg5
F1069.8920964801976
sg6
F4.0
sg8
F375.0516436350946
sg9
F12.384712064356437
sg10
F48354.04783483102
sg11
F50.722772277227726
sg12
S'0_18'
p117
sg14
F512.0
sg15
F0.0
sg7
F16.747524752475247
sg16
F892.5143387488882
sg17
F47.782197299102656
ssS'5'
p118
(dp119
g3
S'scalability'
p120
sg5
F494.00901226562513
sg6
F3.0
sg7
F5.65625
sg8
F954.8386951924217
sg9
F14.134840412698413
sg10
F45567.797018455756
sg11
F17.8125
sg12
S'0_18'
p121
sg14
F1024.0
sg15
F0.0
sg16
F399.35768391505803
sg17
F102.12433267497497
ssS'4'
p122
(dp123
g3
S'scalability'
p124
sg5
F1161.8962442784095
sg6
F5.0
sg7
F21.505681818181817
sg8
F311.45412263110643
sg9
F12.870533562500013
sg10
F57901.52768419174
sg11
F70.20170454545455
sg12
S'0_09'
p125
sg14
F256.0
sg15
F0.0
sg16
F1382.4538093753993
sg17
F44.86148163609173
ssS'7'
p126
(dp127
g3
S'scalability'
p128
sg5
F1115.927626536341
sg6
F4.0
sg8
F580.7093905583251
sg9
F12.71132031328321
sg10
F48519.706565773224
sg11
F54.82706766917293
sg12
S'0_18'
p129
sg14
F1024.0
sg15
F0.0
sg7
F16.94736842105263
sg16
F920.6475250657061
sg17
F49.10400740578263
ssS'6'
p130
(dp131
g3
S'scalability'
p132
sg5
F1757.006244966922
sg6
F5.0
sg8
F771.9076259282167
sg9
F12.621116292620867
sg10
F47953.90903263112
sg11
F88.04834605597965
sg12
S'0_18'
p133
sg14
F1024.0
sg15
F0.0
sg7
F22.46819338422392
sg16
F1188.4751773221042
sg17
F50.14788305682958
ssS'9'
p134
(dp135
g3
S'scalability'
p136
sg5
F1225.954553020057
sg6
F5.0
sg7
F22.10028653295129
sg8
F468.6426051645067
sg9
F13.650823873925496
sg10
F57640.92783921076
sg11
F78.810888252149
sg12
S'0_09'
p137
sg14
F512.0
sg15
F0.0
sg16
F1414.3114613779217
sg17
F45.655627716849445
ssS'8'
p138
(dp139
g3
S'scalability'
p140
sg5
F965.8265715958703
sg6
F5.0
sg8
F306.14652588733804
sg9
F13.566956008849548
sg10
F62166.32255216646
sg11
F70.09734513274336
sg12
S'0_27'
p141
sg14
F256.0
sg15
F0.0
sg7
F21.47787610619469
sg16
F1597.3126692874696
sg17
F43.54862677766698
ssS'51'
p142
(dp143
g3
S'costmapver'
p144
sg5
I1
sg6
F4.0
sg8
F241.64511573280186
sg9
F31.02331049832779
sg10
F67348.29965740348
sg11
F11.046822742474916
sg12
S'0_27'
p145
sg14
F256.0
sg15
F0.0
sg7
I1
sg16
F304.20327091000615
sg17
F46.0056472951146
ssS'13'
p146
(dp147
g3
S'scalability'
p148
sg5
F865.307454604046
sg6
F4.0
sg7
F16.895953757225435
sg8
F556.1957294745768
sg9
F13.568380398843919
sg10
F59448.36872615445
sg11
F54.627167630057805
sg12
S'0_09'
p149
sg14
F1024.0
sg15
F0.0
sg16
F1160.4007434822456
sg17
F46.77806194117655
ssS'12'
p150
(dp151
g3
S'scalability'
p152
sg5
F489.6505176393443
sg6
F3.0
sg8
F284.3935417208375
sg9
F13.026954797814202
sg10
F58727.69061094816
sg11
F30.55464480874317
sg12
S'0_09'
p153
sg14
F512.0
sg15
F0.0
sg7
F10.795081967213115
sg16
F682.062298806286
sg17
F45.618839252243276
ssS'11'
p154
(dp155
g3
S'scalability'
p156
sg5
F1610.345848505103
sg6
F5.0
sg7
F22.112244897959183
sg8
F490.736653090728
sg9
F12.773963096938772
sg10
F48434.88769580865
sg11
F78.92602040816327
sg12
S'0_18'
p157
sg14
F512.0
sg15
F0.0
sg16
F1180.0098009395085
sg17
F48.14488805184444
ssS'10'
p158
(dp159
g3
S'scalability'
p160
sg5
F648.0697835811135
sg6
F3.0
sg8
F292.3698108245267
sg9
F12.55806181598065
sg10
F49001.42674908245
sg11
F30.60774818401937
sg12
S'0_18'
p161
sg14
F512.0
sg15
F0.0
sg7
F10.815980629539952
sg16
F605.2055388132916
sg17
F46.92122506480562
ssS'39'
p162
(dp163
g3
S'costmapver'
p164
sg5
F555.2872543685717
sg6
F3.0
sg8
F288.04171959720867
sg9
F39.030590431428585
sg10
F60028.82955366957
sg11
F40.32
sg12
S'0_09'
p165
sg14
F512.0
sg15
F0.0
sg7
F11.771428571428572
sg16
F717.5327034302985
sg17
F46.9483067387836
ssS'38'
p166
(dp167
g3
S'costmapver'
p168
sg5
F1636.518888977159
sg6
F5.0
sg8
F489.342241073779
sg9
F12.995985449238582
sg10
F47777.70723008094
sg11
F78.83756345177665
sg12
S'0_18'
p169
sg14
F512.0
sg15
F0.0
sg7
F22.18274111675127
sg16
F1183.992273320634
sg17
F47.66741197407771
ssS'15'
p170
(dp171
g3
S'scalability'
p172
sg5
F469.49848161748616
sg6
F3.0
sg7
F10.770491803278688
sg8
F191.74079443469583
sg9
F13.682834825136604
sg10
F58442.098662574084
sg11
F28.273224043715846
sg12
S'0_09'
p173
sg14
F256.0
sg15
F0.0
sg16
F643.2760874304543
sg17
F45.049159504486525
ssS'14'
p174
(dp175
g3
S'scalability'
p176
sg5
F698.2083261186941
sg6
F4.0
sg8
F546.9149260299102
sg9
F13.499595537091984
sg10
F62670.306906346064
sg11
F54.71513353115727
sg12
S'0_27'
p177
sg14
F1024.0
sg15
F0.0
sg7
F16.91394658753709
sg16
F1290.4927410645746
sg17
F45.5367297158525
ssS'17'
p178
(dp179
g3
S'scalability'
p180
sg5
F393.31436371176454
sg6
F3.0
sg7
F10.814705882352941
sg8
F281.7217985473584
sg9
F15.15196754117648
sg10
F64462.3881917739
sg11
F30.491176470588236
sg12
S'0_27'
p181
sg14
F512.0
sg15
F0.0
sg16
F762.1655068742957
sg17
F44.429378733798615
ssS'16'
p182
(dp183
g3
S'scalability'
p184
sg5
F1477.9511955240505
sg6
F5.0
sg7
F21.60759493670886
sg8
F323.84925125024944
sg9
F12.43949628101267
sg10
F47887.29790846011
sg11
F70.37215189873417
sg12
S'0_18'
p185
sg14
F256.0
sg15
F0.0
sg16
F1116.6873054880302
sg17
F48.316225202392815
ssS'19'
p186
(dp187
g3
S'scalability'
p188
sg5
F1309.7169250260117
sg6
F5.0
sg8
F729.3549085483551
sg9
F14.509590124277457
sg10
F58122.712359774036
sg11
F88.1878612716763
sg12
S'0_09'
p189
sg14
F1024.0
sg15
F0.0
sg7
F22.3757225433526
sg16
F1478.0589647977233
sg17
F47.839878983050795
ssS'32'
p190
(dp191
g3
S'costmapver'
p192
sg5
F630.8368085849514
sg6
F3.0
sg7
F10.859223300970873
sg8
F443.2120425064806
sg9
F12.477262446601923
sg10
F49971.35042638194
sg11
F32.3373786407767
sg12
S'0_18'
p193
sg14
F1024.0
sg15
F0.0
sg16
F592.90758561256
sg17
F47.32975759521434
ssS'31'
p194
(dp195
g3
S'costmapver'
p196
sg5
F1506.802595934718
sg6
F5.0
sg7
F25.80712166172107
sg8
F320.18603043569294
sg9
F39.44388157270031
sg10
F58183.63656832982
sg11
F85.7299703264095
sg12
S'0_09'
p197
sg14
F256.0
sg15
F0.0
sg16
F1598.6693543502392
sg17
F46.376411079760686
ssS'30'
p198
(dp199
g3
S'costmapver'
p200
sg5
I1
sg6
F5.0
sg8
F726.5437727906275
sg9
F31.068524527210883
sg10
F68466.28086974772
sg11
F10.95578231292517
sg12
S'0_27'
p201
sg14
F1024.0
sg15
F0.0
sg7
I1
sg16
F297.37624354031874
sg17
F46.064865352941105
ssS'37'
p202
(dp203
g3
S'costmapver'
p204
sg5
F590.1988698665106
sg6
F3.0
sg8
F285.4636504685941
sg9
F12.398824128805629
sg10
F48636.26206806467
sg11
F30.662763466042154
sg12
S'0_18'
p205
sg14
F512.0
sg15
F0.0
sg7
F10.840749414519907
sg16
F579.27063870115
sg17
F47.862032068793575
ssS'36'
p206
(dp207
g3
S'costmapver'
p208
sg5
F1674.5714542529413
sg6
F5.0
sg7
F26.66764705882353
sg8
F478.65975658324965
sg9
F39.66169328529412
sg10
F58472.31961364875
sg11
F106.33529411764705
sg12
S'0_09'
p209
sg14
F512.0
sg15
F0.0
sg16
F1696.9014581822664
sg17
F46.88049483349952
ssS'35'
p210
(dp211
g3
S'costmapver'
p212
sg5
I1
sg6
F5.0
sg7
I1
sg8
F311.8031136889331
sg9
F29.76666769503546
sg10
F70194.03535585475
sg11
F10.652482269503546
sg12
S'0_27'
p213
sg14
F256.0
sg15
F0.0
sg16
F291.4972619070583
sg17
F44.95957395014951
ssS'34'
p214
(dp215
g3
S'costmapver'
p216
sg5
F1120.5739236875008
sg6
F4.0
sg7
F16.93
sg8
F580.7650834217349
sg9
F12.501572459999991
sg10
F48263.60230928428
sg11
F54.645
sg12
S'0_18'
p217
sg14
F1024.0
sg15
F0.0
sg16
F924.2403640952372
sg17
F49.18762790329014
ssS'33'
p218
(dp219
g3
S'costmapver'
p220
sg5
F1750.7577119002565
sg6
F5.0
sg7
F22.470588235294116
sg8
F763.7607057447651
sg9
F13.443211664961625
sg10
F47840.389355336956
sg11
F88.24040920716112
sg12
S'0_18'
p221
sg14
F1024.0
sg15
F0.0
sg16
F1185.4719816016757
sg17
F49.070491976071814
ssS'18'
p222
(dp223
g3
S'scalability'
p224
sg5
F1050.4707475625003
sg6
F4.0
sg8
F243.63877913559335
sg9
F12.893247600000004
sg10
F48879.91653702843
sg11
F46.3925
sg12
S'0_18'
p225
sg14
F256.0
sg15
F0.0
sg7
F16.62
sg16
F926.0862020132179
sg17
F47.81109022033895
ssS'50'
p226
(dp227
g3
S'costmapver'
p228
sg5
I1
sg6
F3.0
sg7
I1
sg8
F442.3619956949156
sg9
F31.031217564189184
sg10
F67990.56408125821
sg11
F10.81418918918919
sg12
S'0_27'
p229
sg14
F1024.0
sg15
F0.0
sg16
F285.0063217608106
sg17
F46.795838764705884
ss.